; Function Attrs: mustprogress nofree norecurse nosync nounwind willreturn memory(readwrite, inaccessiblemem: none) uwtable
define internal range(i32 0, 2) i32 @H5F__get_all_ids_cb(ptr readnone captures(none) %0, i64 noundef %1, ptr noundef captures(none) %2) #5 {
  %4 = load i8, ptr @H5F_init_g, align 1, !tbaa !3, !range !7, !noundef !8
  %5 = trunc nuw i8 %4 to i1
  %6 = load i8, ptr @H5_libterm_g, align 1, !range !7
  %7 = trunc nuw i8 %6 to i1
  %8 = xor i1 %7, true
  %9 = select i1 %5, i1 true, i1 %8
  br i1 %9, label %10, label %20, !prof !9

10:                                               ; preds = %3
  %11 = getelementptr inbounds nuw i8, ptr %2, i64 16
  %12 = load i64, ptr %11, align 8, !tbaa !27
  %13 = load i64, ptr %2, align 8, !tbaa !22
  %.not = icmp ult i64 %12, %13
  br i1 %.not, label %14, label %20

14:                                               ; preds = %10
  %15 = getelementptr inbounds nuw i8, ptr %2, i64 8
  %16 = load ptr, ptr %15, align 8, !tbaa !26
  %17 = getelementptr inbounds nuw i64, ptr %16, i64 %12
  store i64 %1, ptr %17, align 8, !tbaa !11
  %18 = load i64, ptr %11, align 8, !tbaa !27
  %19 = add i64 %18, 1
  store i64 %19, ptr %11, align 8, !tbaa !27
  br label %20

20:                                               ; preds = %10, %14, %3
  %.0 = phi i32 [ 0, %14 ], [ 0, %3 ], [ 1, %10 ]
  ret i32 %.0
}